target datalayout = "e-m:e-p270:32:32-p271:32:32-p272:64:64-i64:64-i128:128-f80:128-n8:16:32:64-S128"
target triple = "x86_64-pc-linux-gnu"

@context_switches = internal global [2 x ptr] zeroinitializer, align 16

; Function Attrs: nounwind uwtable
define internal i32 @handle_context_watcher_event(i32 noundef %0, i32 noundef %1, ptr noundef %2) #0 {
  %4 = alloca i32, align 4
  %5 = alloca i32, align 4
  %6 = alloca i32, align 4
  %7 = alloca ptr, align 8
  store i32 %0, ptr %5, align 4, !tbaa !10
  store i32 %1, ptr %6, align 4, !tbaa !10
  store ptr %2, ptr %7, align 8, !tbaa !3
  %8 = load i32, ptr %6, align 4, !tbaa !10
  %9 = icmp eq i32 %8, 1
  br i1 %9, label %10, label %17

10:                                               ; preds = %3
  %11 = load i32, ptr %5, align 4, !tbaa !10
  %12 = sext i32 %11 to i64
  %13 = getelementptr [2 x ptr], ptr @context_switches, i64 0, i64 %12
  %14 = load ptr, ptr %13, align 8, !tbaa !3
  %15 = load ptr, ptr %7, align 8, !tbaa !3
  %16 = call i32 @PyList_Append(ptr noundef %14, ptr noundef %15)
  br label %18

17:                                               ; preds = %3
  store i32 -1, ptr %4, align 4
  br label %19

18:                                               ; preds = %10
  store i32 0, ptr %4, align 4
  br label %19

19:                                               ; preds = %18, %17
  %20 = load i32, ptr %4, align 4
  ret i32 %20
}

; Function Attrs: nounwind uwtable
define internal i32 @first_context_watcher_callback(i32 noundef %0, ptr noundef %1) #0 {
  %3 = alloca i32, align 4
  %4 = alloca ptr, align 8
  store i32 %0, ptr %3, align 4, !tbaa !10
  store ptr %1, ptr %4, align 8, !tbaa !3
  %5 = load i32, ptr %3, align 4, !tbaa !10
  %6 = load ptr, ptr %4, align 8, !tbaa !3
  %7 = call i32 @handle_context_watcher_event(i32 noundef 0, i32 noundef %5, ptr noundef %6)
  ret i32 %7
}