; Function Attrs: nounwind uwtable
define internal range(i32 -1, 1) i32 @first_context_watcher_callback(i32 noundef %0, ptr noundef %1) #0 {
  %3 = icmp eq i32 %0, 1
  br i1 %3, label %4, label %handle_context_watcher_event.exit

4:                                                ; preds = %2
  %5 = load ptr, ptr @context_switches, align 16, !tbaa !21
  %6 = tail call i32 @PyList_Append(ptr noundef %5, ptr noundef %1) #6
  br label %handle_context_watcher_event.exit

handle_context_watcher_event.exit:                ; preds = %2, %4
  %.0.i = phi i32 [ 0, %4 ], [ -1, %2 ]
  ret i32 %.0.i
}